target datalayout = "e-m:e-p270:32:32-p271:32:32-p272:64:64-i64:64-i128:128-f80:128-n8:16:32:64-S128"
target triple = "x86_64-pc-linux-gnu"

%class.Sample = type { ptr, ptr, ptr, ptr, ptr, i8, float, float, float, float, float, float, float, float, float, float, float, float, float, i32, i8, i8, i8, ptr, [9 x ptr], ptr, %class.SampleDebugDraw }
%class.SampleDebugDraw = type { %class.DebugDrawGL }
%class.DebugDrawGL = type { %struct.duDebugDraw }
%struct.duDebugDraw = type { ptr }

; Function Attrs: mustprogress uwtable
define dso_local void @_ZN6Sample16updateToolStatesEf(ptr noundef nonnull align 8 dereferenceable(200) %0, float noundef %1) #2 align 2 {
  %3 = alloca ptr, align 8
  %4 = alloca float, align 4
  %5 = alloca i32, align 4
  store ptr %0, ptr %3, align 8
  store float %1, ptr %4, align 4
  %6 = load ptr, ptr %3, align 8
  store i32 0, ptr %5, align 4
  br label %7

7:                                                ; preds = %28, %2
  %8 = load i32, ptr %5, align 4
  %9 = icmp slt i32 %8, 9
  br i1 %9, label %10, label %31

10:                                               ; preds = %7
  %11 = getelementptr inbounds %class.Sample, ptr %6, i32 0, i32 24
  %12 = load i32, ptr %5, align 4
  %13 = sext i32 %12 to i64
  %14 = getelementptr inbounds [9 x ptr], ptr %11, i64 0, i64 %13
  %15 = load ptr, ptr %14, align 8
  %16 = icmp ne ptr %15, null
  br i1 %16, label %17, label %27

17:                                               ; preds = %10
  %18 = getelementptr inbounds %class.Sample, ptr %6, i32 0, i32 24
  %19 = load i32, ptr %5, align 4
  %20 = sext i32 %19 to i64
  %21 = getelementptr inbounds [9 x ptr], ptr %18, i64 0, i64 %20
  %22 = load ptr, ptr %21, align 8
  %23 = load float, ptr %4, align 4
  %24 = load ptr, ptr %22, align 8
  %25 = getelementptr inbounds ptr, ptr %24, i64 6
  %26 = load ptr, ptr %25, align 8
  call void %26(ptr noundef nonnull align 8 dereferenceable(8) %22, float noundef %23)
  br label %27

27:                                               ; preds = %17, %10
  br label %28

28:                                               ; preds = %27
  %29 = load i32, ptr %5, align 4
  %30 = add nsw i32 %29, 1
  store i32 %30, ptr %5, align 4
  br label %7, !llvm.loop !8

31:                                               ; preds = %7
  ret void
}

; Function Attrs: mustprogress uwtable
define dso_local void @_ZN6Sample12handleUpdateEf(ptr noundef nonnull align 8 dereferenceable(200) %0, float noundef %1) unnamed_addr #2 align 2 {
  %3 = alloca ptr, align 8
  %4 = alloca float, align 4
  store ptr %0, ptr %3, align 8
  store float %1, ptr %4, align 4
  %5 = load ptr, ptr %3, align 8
  %6 = getelementptr inbounds %class.Sample, ptr %5, i32 0, i32 23
  %7 = load ptr, ptr %6, align 8
  %8 = icmp ne ptr %7, null
  br i1 %8, label %9, label %16

9:                                                ; preds = %2
  %10 = getelementptr inbounds %class.Sample, ptr %5, i32 0, i32 23
  %11 = load ptr, ptr %10, align 8
  %12 = load float, ptr %4, align 4
  %13 = load ptr, ptr %11, align 8
  %14 = getelementptr inbounds ptr, ptr %13, i64 11
  %15 = load ptr, ptr %14, align 8
  call void %15(ptr noundef nonnull align 8 dereferenceable(8) %11, float noundef %12)
  br label %16

16:                                               ; preds = %9, %2
  %17 = load float, ptr %4, align 4
  call void @_ZN6Sample16updateToolStatesEf(ptr noundef nonnull align 8 dereferenceable(200) %5, float noundef %17)
  ret void
}