; Function Attrs: mustprogress uwtable
define dso_local void @_ZN6Sample12handleUpdateEf(ptr nocapture noundef nonnull readonly align 8 dereferenceable(200) %0, float noundef %1) unnamed_addr #3 align 2 {
  %3 = getelementptr inbounds i8, ptr %0, i64 104
  %4 = load ptr, ptr %3, align 8
  %.not = icmp eq ptr %4, null
  br i1 %.not, label %9, label %5

5:                                                ; preds = %2
  %6 = load ptr, ptr %4, align 8
  %7 = getelementptr inbounds i8, ptr %6, i64 88
  %8 = load ptr, ptr %7, align 8
  tail call void %8(ptr noundef nonnull align 8 dereferenceable(8) %4, float noundef %1)
  br label %9

9:                                                ; preds = %5, %2
  %10 = getelementptr inbounds i8, ptr %0, i64 112
  br label %11

11:                                               ; preds = %18, %9
  %indvars.iv.i = phi i64 [ 0, %9 ], [ %indvars.iv.next.i, %18 ]
  %12 = getelementptr inbounds [9 x ptr], ptr %10, i64 0, i64 %indvars.iv.i
  %13 = load ptr, ptr %12, align 8
  %.not.i = icmp eq ptr %13, null
  br i1 %.not.i, label %18, label %14

14:                                               ; preds = %11
  %15 = load ptr, ptr %13, align 8
  %16 = getelementptr inbounds i8, ptr %15, i64 48
  %17 = load ptr, ptr %16, align 8
  tail call void %17(ptr noundef nonnull align 8 dereferenceable(8) %13, float noundef %1)
  br label %18

18:                                               ; preds = %14, %11
  %indvars.iv.next.i = add nuw nsw i64 %indvars.iv.i, 1
  %exitcond.not.i = icmp eq i64 %indvars.iv.next.i, 9
  br i1 %exitcond.not.i, label %_ZN6Sample16updateToolStatesEf.exit, label %11, !llvm.loop !7

_ZN6Sample16updateToolStatesEf.exit:              ; preds = %18
  ret void
}